target datalayout = "e-m:e-p270:32:32-p271:32:32-p272:64:64-i64:64-i128:128-f80:128-n8:16:32:64-S128"
target triple = "x86_64-pc-linux-gnu"

%class.UPerfTest = type { ptr, i32, ptr, ptr, ptr, ptr, ptr, i8, ptr, ptr, i32, ptr, i32, i8, ptr, i32, i8, i8, i32, i32, i32, ptr, ptr, ptr }

; Function Attrs: mustprogress nounwind uwtable
define void @_ZN9UPerfTest9setCallerEPS_(ptr noundef nonnull align 8 dereferenceable(160) %0, ptr noundef %1) #0 align 2 {
  %3 = alloca ptr, align 8
  %4 = alloca ptr, align 8
  store ptr %0, ptr %3, align 8, !tbaa !8
  store ptr %1, ptr %4, align 8, !tbaa !8
  %5 = load ptr, ptr %3, align 8
  %6 = load ptr, ptr %4, align 8, !tbaa !8
  %7 = getelementptr inbounds nuw %class.UPerfTest, ptr %5, i32 0, i32 22
  store ptr %6, ptr %7, align 8, !tbaa !76
  %8 = getelementptr inbounds nuw %class.UPerfTest, ptr %5, i32 0, i32 22
  %9 = load ptr, ptr %8, align 8, !tbaa !76
  %10 = icmp ne ptr %9, null
  br i1 %10, label %11, label %17

11:                                               ; preds = %2
  %12 = getelementptr inbounds nuw %class.UPerfTest, ptr %5, i32 0, i32 22
  %13 = load ptr, ptr %12, align 8, !tbaa !76
  %14 = getelementptr inbounds nuw %class.UPerfTest, ptr %13, i32 0, i32 16
  %15 = load i8, ptr %14, align 4, !tbaa !36
  %16 = getelementptr inbounds nuw %class.UPerfTest, ptr %5, i32 0, i32 16
  store i8 %15, ptr %16, align 4, !tbaa !36
  br label %17

17:                                               ; preds = %11, %2
  ret void
}