; Function Attrs: mustprogress nofree norecurse nosync nounwind willreturn memory(argmem: readwrite) uwtable
define void @_ZN9UPerfTest9setCallerEPS_(ptr noundef nonnull writeonly align 8 captures(none) dereferenceable(160) initializes((144, 152)) %0, ptr noundef %1) local_unnamed_addr #15 align 2 {
  %3 = getelementptr inbounds nuw i8, ptr %0, i64 144
  store ptr %1, ptr %3, align 8, !tbaa !62
  %.not = icmp eq ptr %1, null
  br i1 %.not, label %8, label %4

4:                                                ; preds = %2
  %5 = getelementptr inbounds nuw i8, ptr %1, i64 116
  %6 = load i8, ptr %5, align 4, !tbaa !38
  %7 = getelementptr inbounds nuw i8, ptr %0, i64 116
  store i8 %6, ptr %7, align 4, !tbaa !38
  br label %8

8:                                                ; preds = %4, %2
  ret void
}